
timer-overflow-interrupt.elf:     file format elf32-avr

Sections:
Idx Name          Size      VMA       LMA       File off  Algn
  0 .data         00000000  00800100  00800100  00000178  2**0
                  CONTENTS, ALLOC, LOAD, DATA
  1 .text         00000104  00000000  00000000  00000074  2**1
                  CONTENTS, ALLOC, LOAD, READONLY, CODE
  2 .bss          00000001  00800100  00800100  00000178  2**0
                  ALLOC
  3 .comment      00000030  00000000  00000000  00000178  2**0
                  CONTENTS, READONLY
  4 .note.gnu.avr.deviceinfo 00000040  00000000  00000000  000001a8  2**2
                  CONTENTS, READONLY
  5 .debug_aranges 00000030  00000000  00000000  000001e8  2**0
                  CONTENTS, READONLY, DEBUGGING
  6 .debug_info   000007da  00000000  00000000  00000218  2**0
                  CONTENTS, READONLY, DEBUGGING
  7 .debug_abbrev 00000739  00000000  00000000  000009f2  2**0
                  CONTENTS, READONLY, DEBUGGING
  8 .debug_line   0000022c  00000000  00000000  0000112b  2**0
                  CONTENTS, READONLY, DEBUGGING
  9 .debug_frame  00000058  00000000  00000000  00001358  2**2
                  CONTENTS, READONLY, DEBUGGING
 10 .debug_str    000003f2  00000000  00000000  000013b0  2**0
                  CONTENTS, READONLY, DEBUGGING
 11 .debug_loc    00000049  00000000  00000000  000017a2  2**0
                  CONTENTS, READONLY, DEBUGGING
 12 .debug_ranges 00000020  00000000  00000000  000017eb  2**0
                  CONTENTS, READONLY, DEBUGGING

Disassembly of section .text:

00000000 <__vectors>:
   0:	0c 94 36 00 	jmp	0x6c	; 0x6c <__ctors_end>
   4:	0c 94 53 00 	jmp	0xa6	; 0xa6 <__bad_interrupt>
   8:	0c 94 53 00 	jmp	0xa6	; 0xa6 <__bad_interrupt>
   c:	0c 94 53 00 	jmp	0xa6	; 0xa6 <__bad_interrupt>
  10:	0c 94 53 00 	jmp	0xa6	; 0xa6 <__bad_interrupt>
  14:	0c 94 53 00 	jmp	0xa6	; 0xa6 <__bad_interrupt>
  18:	0c 94 53 00 	jmp	0xa6	; 0xa6 <__bad_interrupt>
  1c:	0c 94 53 00 	jmp	0xa6	; 0xa6 <__bad_interrupt>
  20:	0c 94 53 00 	jmp	0xa6	; 0xa6 <__bad_interrupt>
  24:	0c 94 53 00 	jmp	0xa6	; 0xa6 <__bad_interrupt>
  28:	0c 94 53 00 	jmp	0xa6	; 0xa6 <__bad_interrupt>
  2c:	0c 94 53 00 	jmp	0xa6	; 0xa6 <__bad_interrupt>
  30:	0c 94 53 00 	jmp	0xa6	; 0xa6 <__bad_interrupt>
  34:	0c 94 53 00 	jmp	0xa6	; 0xa6 <__bad_interrupt>
  38:	0c 94 53 00 	jmp	0xa6	; 0xa6 <__bad_interrupt>
  3c:	0c 94 53 00 	jmp	0xa6	; 0xa6 <__bad_interrupt>
  40:	0c 94 55 00 	jmp	0xaa	; 0xaa <__vector_16>
  44:	0c 94 53 00 	jmp	0xa6	; 0xa6 <__bad_interrupt>
  48:	0c 94 53 00 	jmp	0xa6	; 0xa6 <__bad_interrupt>
  4c:	0c 94 53 00 	jmp	0xa6	; 0xa6 <__bad_interrupt>
  50:	0c 94 53 00 	jmp	0xa6	; 0xa6 <__bad_interrupt>
  54:	0c 94 53 00 	jmp	0xa6	; 0xa6 <__bad_interrupt>
  58:	0c 94 53 00 	jmp	0xa6	; 0xa6 <__bad_interrupt>
  5c:	0c 94 53 00 	jmp	0xa6	; 0xa6 <__bad_interrupt>
  60:	0c 94 53 00 	jmp	0xa6	; 0xa6 <__bad_interrupt>
  64:	0c 94 53 00 	jmp	0xa6	; 0xa6 <__bad_interrupt>
  68:	0c 94 53 00 	jmp	0xa6	; 0xa6 <__bad_interrupt>

0000006c <__ctors_end>:
  6c:	11 24       	eor	r1, r1
  6e:	1f be       	out	0x3f, r1	; 63
  70:	cf ef       	ldi	r28, 0xFF	; 255
  72:	d4 e0       	ldi	r29, 0x04	; 4
  74:	de bf       	out	0x3e, r29	; 62
  76:	cd bf       	out	0x3d, r28	; 61

00000078 <__do_copy_data>:
  78:	11 e0       	ldi	r17, 0x01	; 1
  7a:	a0 e0       	ldi	r26, 0x00	; 0
  7c:	b1 e0       	ldi	r27, 0x01	; 1
  7e:	e4 e0       	ldi	r30, 0x04	; 4
  80:	f1 e0       	ldi	r31, 0x01	; 1
  82:	02 c0       	rjmp	.+4      	; 0x88 <__do_copy_data+0x10>
  84:	05 90       	lpm	r0, Z+
  86:	0d 92       	st	X+, r0
  88:	a0 30       	cpi	r26, 0x00	; 0
  8a:	b1 07       	cpc	r27, r17
  8c:	d9 f7       	brne	.-10     	; 0x84 <__do_copy_data+0xc>

0000008e <__do_clear_bss>:
  8e:	21 e0       	ldi	r18, 0x01	; 1
  90:	a0 e0       	ldi	r26, 0x00	; 0
  92:	b1 e0       	ldi	r27, 0x01	; 1
  94:	01 c0       	rjmp	.+2      	; 0x98 <.do_clear_bss_start>

00000096 <.do_clear_bss_loop>:
  96:	1d 92       	st	X+, r1

00000098 <.do_clear_bss_start>:
  98:	a1 30       	cpi	r26, 0x01	; 1
  9a:	b2 07       	cpc	r27, r18
  9c:	e1 f7       	brne	.-8      	; 0x96 <.do_clear_bss_loop>
  9e:	0e 94 7d 00 	call	0xfa	; 0xfa <main>
  a2:	0c 94 80 00 	jmp	0x100	; 0x100 <_exit>

000000a6 <__bad_interrupt>:
  a6:	0c 94 00 00 	jmp	0	; 0x0 <__vectors>

000000aa <__vector_16>:
const uint8_t cntr_max = 30;

// Write here the interrupt handler function. The vector name starts with TIMER ;). Use Ctrl+Space to find the proper vector name!

ISR(TIMER0_OVF_vect)
{
  aa:	1f 92       	push	r1
  ac:	0f 92       	push	r0
  ae:	0f b6       	in	r0, 0x3f	; 63
  b0:	0f 92       	push	r0
  b2:	11 24       	eor	r1, r1
  b4:	8f 93       	push	r24
  b6:	9f 93       	push	r25
	cntr++;
  b8:	80 91 00 01 	lds	r24, 0x0100	; 0x800100 <__data_end>
  bc:	8f 5f       	subi	r24, 0xFF	; 255
  be:	80 93 00 01 	sts	0x0100, r24	; 0x800100 <__data_end>
	if (cntr >= cntr_max){
  c2:	8e 31       	cpi	r24, 0x1E	; 30
  c4:	30 f0       	brcs	.+12     	; 0xd2 <__vector_16+0x28>
		PORTB ^= 1 << PORTB5;
  c6:	95 b1       	in	r25, 0x05	; 5
  c8:	80 e2       	ldi	r24, 0x20	; 32
  ca:	89 27       	eor	r24, r25
  cc:	85 b9       	out	0x05, r24	; 5
		cntr = 0;
  ce:	10 92 00 01 	sts	0x0100, r1	; 0x800100 <__data_end>
	}
}
  d2:	9f 91       	pop	r25
  d4:	8f 91       	pop	r24
  d6:	0f 90       	pop	r0
  d8:	0f be       	out	0x3f, r0	; 63
  da:	0f 90       	pop	r0
  dc:	1f 90       	pop	r1
  de:	18 95       	reti

000000e0 <init>:
// This time you don't have to do anything with the flags, the MCU does it automatically.

void init()
{
	// Set the prescaler to 1024 division. See at the TC0 control register in the datasheet!
	TCCR0B |= 0b101; 
  e0:	85 b5       	in	r24, 0x25	; 37
  e2:	85 60       	ori	r24, 0x05	; 5
  e4:	85 bd       	out	0x25, r24	; 37
	// With this you also set the clock source to CLK_io and you will also turn on the timer!

	TCNT0 = 0;
  e6:	16 bc       	out	0x26, r1	; 38

	// Set the PB5 LED pin to output
	DDRB = 1 << PORTB5;
  e8:	80 e2       	ldi	r24, 0x20	; 32
  ea:	84 b9       	out	0x04, r24	; 4
	
	// Enable the TC0 overflow interrupt
	// Set the value that you want to count to

    TIMSK0 |= (1 << TOIE0);    //Set the ISR COMPA vect
  ec:	ee e6       	ldi	r30, 0x6E	; 110
  ee:	f0 e0       	ldi	r31, 0x00	; 0
  f0:	80 81       	ld	r24, Z
  f2:	81 60       	ori	r24, 0x01	; 1
  f4:	80 83       	st	Z, r24
	// Enable the interrupts globally
	sei();
  f6:	78 94       	sei
  f8:	08 95       	ret

000000fa <main>:
}

int main(void)
{
	// Don't forget to call the init function!
	init();
  fa:	0e 94 70 00 	call	0xe0	; 0xe0 <init>
  fe:	ff cf       	rjmp	.-2      	; 0xfe <main+0x4>

00000100 <_exit>:
 100:	f8 94       	cli

00000102 <__stop_program>:
 102:	ff cf       	rjmp	.-2      	; 0x102 <__stop_program>
